target datalayout = "e-m:e-p270:32:32-p271:32:32-p272:64:64-i64:64-i128:128-f80:128-n8:16:32:64-S128"
target triple = "x86_64-pc-linux-gnu"

%struct.mbedtls_ssl_cache_context = type { ptr, i32, i32 }
%struct.mbedtls_ssl_cache_entry = type { i64, [32 x i8], i64, ptr, i64, ptr }

; Function Attrs: nounwind uwtable
define internal void @ssl_cache_entry_zeroize(ptr noundef %0) #0 {
  %2 = alloca ptr, align 8
  store ptr %0, ptr %2, align 8, !tbaa !21
  %3 = load ptr, ptr %2, align 8, !tbaa !21
  %4 = icmp eq ptr %3, null
  br i1 %4, label %5, label %6

5:                                                ; preds = %1
  br label %20

6:                                                ; preds = %1
  %7 = load ptr, ptr %2, align 8, !tbaa !21
  %8 = getelementptr inbounds nuw %struct.mbedtls_ssl_cache_entry, ptr %7, i32 0, i32 3
  %9 = load ptr, ptr %8, align 8, !tbaa !22
  %10 = icmp ne ptr %9, null
  br i1 %10, label %11, label %18

11:                                               ; preds = %6
  %12 = load ptr, ptr %2, align 8, !tbaa !21
  %13 = getelementptr inbounds nuw %struct.mbedtls_ssl_cache_entry, ptr %12, i32 0, i32 3
  %14 = load ptr, ptr %13, align 8, !tbaa !22
  %15 = load ptr, ptr %2, align 8, !tbaa !21
  %16 = getelementptr inbounds nuw %struct.mbedtls_ssl_cache_entry, ptr %15, i32 0, i32 4
  %17 = load i64, ptr %16, align 8, !tbaa !24
  call void @mbedtls_zeroize_and_free(ptr noundef %14, i64 noundef %17)
  br label %18

18:                                               ; preds = %11, %6
  %19 = load ptr, ptr %2, align 8, !tbaa !21
  call void @mbedtls_platform_zeroize(ptr noundef %19, i64 noundef 72)
  br label %20

20:                                               ; preds = %18, %5
  ret void
}

; Function Attrs: nounwind uwtable
define internal i32 @ssl_cache_pick_writing_slot(ptr noundef %0, ptr noundef %1, i64 noundef %2, ptr noundef %3) #0 {
  %5 = alloca i32, align 4
  %6 = alloca ptr, align 8
  %7 = alloca ptr, align 8
  %8 = alloca i64, align 8
  %9 = alloca ptr, align 8
  %10 = alloca i64, align 8
  %11 = alloca i64, align 8
  %12 = alloca ptr, align 8
  %13 = alloca i32, align 4
  %14 = alloca ptr, align 8
  %15 = alloca ptr, align 8
  %16 = alloca i32, align 4
  store ptr %0, ptr %6, align 8, !tbaa !3
  store ptr %1, ptr %7, align 8, !tbaa !14
  store i64 %2, ptr %8, align 8, !tbaa !16
  store ptr %3, ptr %9, align 8, !tbaa !25
  call void @llvm.lifetime.start.p0(i64 8, ptr %10) #8
  %17 = call i64 @time(ptr noundef null) #8
  store i64 %17, ptr %10, align 8, !tbaa !16
  call void @llvm.lifetime.start.p0(i64 8, ptr %11) #8
  store i64 0, ptr %11, align 8, !tbaa !16
  call void @llvm.lifetime.start.p0(i64 8, ptr %12) #8
  store ptr null, ptr %12, align 8, !tbaa !21
  call void @llvm.lifetime.start.p0(i64 4, ptr %13) #8
  store i32 0, ptr %13, align 4, !tbaa !20
  call void @llvm.lifetime.start.p0(i64 8, ptr %14) #8
  call void @llvm.lifetime.start.p0(i64 8, ptr %15) #8
  store ptr null, ptr %15, align 8, !tbaa !21
  %18 = load ptr, ptr %6, align 8, !tbaa !3
  %19 = getelementptr inbounds nuw %struct.mbedtls_ssl_cache_context, ptr %18, i32 0, i32 0
  %20 = load ptr, ptr %19, align 8, !tbaa !28
  store ptr %20, ptr %14, align 8, !tbaa !21
  br label %21

21:                                               ; preds = %45, %4
  %22 = load ptr, ptr %14, align 8, !tbaa !21
  %23 = icmp ne ptr %22, null
  br i1 %23, label %24, label %49

24:                                               ; preds = %21
  %25 = load i32, ptr %13, align 4, !tbaa !20
  %26 = add nsw i32 %25, 1
  store i32 %26, ptr %13, align 4, !tbaa !20
  %27 = load i64, ptr %8, align 8, !tbaa !16
  %28 = load ptr, ptr %14, align 8, !tbaa !21
  %29 = getelementptr inbounds nuw %struct.mbedtls_ssl_cache_entry, ptr %28, i32 0, i32 2
  %30 = load i64, ptr %29, align 8, !tbaa !30
  %31 = icmp eq i64 %27, %30
  br i1 %31, label %32, label %43

32:                                               ; preds = %24
  %33 = load ptr, ptr %7, align 8, !tbaa !14
  %34 = load ptr, ptr %14, align 8, !tbaa !21
  %35 = getelementptr inbounds nuw %struct.mbedtls_ssl_cache_entry, ptr %34, i32 0, i32 1
  %36 = getelementptr inbounds [32 x i8], ptr %35, i64 0, i64 0
  %37 = load ptr, ptr %14, align 8, !tbaa !21
  %38 = getelementptr inbounds nuw %struct.mbedtls_ssl_cache_entry, ptr %37, i32 0, i32 2
  %39 = load i64, ptr %38, align 8, !tbaa !30
  %40 = call i32 @memcmp(ptr noundef %33, ptr noundef %36, i64 noundef %39) #9
  %41 = icmp eq i32 %40, 0
  br i1 %41, label %42, label %43

42:                                               ; preds = %32
  br label %121

43:                                               ; preds = %32, %24
  %44 = load ptr, ptr %14, align 8, !tbaa !21
  store ptr %44, ptr %15, align 8, !tbaa !21
  br label %45

45:                                               ; preds = %43
  %46 = load ptr, ptr %14, align 8, !tbaa !21
  %47 = getelementptr inbounds nuw %struct.mbedtls_ssl_cache_entry, ptr %46, i32 0, i32 5
  %48 = load ptr, ptr %47, align 8, !tbaa !31
  store ptr %48, ptr %14, align 8, !tbaa !21
  br label %21, !llvm.loop !34

49:                                               ; preds = %21
  %50 = load ptr, ptr %6, align 8, !tbaa !3
  %51 = getelementptr inbounds nuw %struct.mbedtls_ssl_cache_context, ptr %50, i32 0, i32 0
  %52 = load ptr, ptr %51, align 8, !tbaa !28
  store ptr %52, ptr %14, align 8, !tbaa !21
  br label %53

53:                                               ; preds = %88, %49
  %54 = load ptr, ptr %14, align 8, !tbaa !21
  %55 = icmp ne ptr %54, null
  br i1 %55, label %56, label %92

56:                                               ; preds = %53
  %57 = load ptr, ptr %6, align 8, !tbaa !3
  %58 = getelementptr inbounds nuw %struct.mbedtls_ssl_cache_context, ptr %57, i32 0, i32 1
  %59 = load i32, ptr %58, align 8, !tbaa !8
  %60 = icmp ne i32 %59, 0
  br i1 %60, label %61, label %73

61:                                               ; preds = %56
  %62 = load i64, ptr %10, align 8, !tbaa !16
  %63 = load ptr, ptr %14, align 8, !tbaa !21
  %64 = getelementptr inbounds nuw %struct.mbedtls_ssl_cache_entry, ptr %63, i32 0, i32 0
  %65 = load i64, ptr %64, align 8, !tbaa !29
  %66 = sub nsw i64 %62, %65
  %67 = trunc i64 %66 to i32
  %68 = load ptr, ptr %6, align 8, !tbaa !3
  %69 = getelementptr inbounds nuw %struct.mbedtls_ssl_cache_context, ptr %68, i32 0, i32 1
  %70 = load i32, ptr %69, align 8, !tbaa !8
  %71 = icmp sgt i32 %67, %70
  br i1 %71, label %72, label %73

72:                                               ; preds = %61
  br label %121

73:                                               ; preds = %61, %56
  %74 = load i64, ptr %11, align 8, !tbaa !16
  %75 = icmp eq i64 %74, 0
  br i1 %75, label %82, label %76

76:                                               ; preds = %73
  %77 = load ptr, ptr %14, align 8, !tbaa !21
  %78 = getelementptr inbounds nuw %struct.mbedtls_ssl_cache_entry, ptr %77, i32 0, i32 0
  %79 = load i64, ptr %78, align 8, !tbaa !29
  %80 = load i64, ptr %11, align 8, !tbaa !16
  %81 = icmp slt i64 %79, %80
  br i1 %81, label %82, label %87

82:                                               ; preds = %76, %73
  %83 = load ptr, ptr %14, align 8, !tbaa !21
  %84 = getelementptr inbounds nuw %struct.mbedtls_ssl_cache_entry, ptr %83, i32 0, i32 0
  %85 = load i64, ptr %84, align 8, !tbaa !29
  store i64 %85, ptr %11, align 8, !tbaa !16
  %86 = load ptr, ptr %14, align 8, !tbaa !21
  store ptr %86, ptr %12, align 8, !tbaa !21
  br label %87

87:                                               ; preds = %82, %76
  br label %88

88:                                               ; preds = %87
  %89 = load ptr, ptr %14, align 8, !tbaa !21
  %90 = getelementptr inbounds nuw %struct.mbedtls_ssl_cache_entry, ptr %89, i32 0, i32 5
  %91 = load ptr, ptr %90, align 8, !tbaa !31
  store ptr %91, ptr %14, align 8, !tbaa !21
  br label %53, !llvm.loop !35

92:                                               ; preds = %53
  %93 = load i32, ptr %13, align 4, !tbaa !20
  %94 = load ptr, ptr %6, align 8, !tbaa !3
  %95 = getelementptr inbounds nuw %struct.mbedtls_ssl_cache_context, ptr %94, i32 0, i32 2
  %96 = load i32, ptr %95, align 4, !tbaa !12
  %97 = icmp slt i32 %93, %96
  br i1 %97, label %98, label %115

98:                                               ; preds = %92
  %99 = call noalias ptr @calloc(i64 noundef 1, i64 noundef 72) #10
  store ptr %99, ptr %14, align 8, !tbaa !21
  %100 = load ptr, ptr %14, align 8, !tbaa !21
  %101 = icmp eq ptr %100, null
  br i1 %101, label %102, label %103

102:                                              ; preds = %98
  store i32 -32512, ptr %5, align 4
  store i32 1, ptr %16, align 4
  br label %140

103:                                              ; preds = %98
  %104 = load ptr, ptr %15, align 8, !tbaa !21
  %105 = icmp eq ptr %104, null
  br i1 %105, label %106, label %110

106:                                              ; preds = %103
  %107 = load ptr, ptr %14, align 8, !tbaa !21
  %108 = load ptr, ptr %6, align 8, !tbaa !3
  %109 = getelementptr inbounds nuw %struct.mbedtls_ssl_cache_context, ptr %108, i32 0, i32 0
  store ptr %107, ptr %109, align 8, !tbaa !28
  br label %114

110:                                              ; preds = %103
  %111 = load ptr, ptr %14, align 8, !tbaa !21
  %112 = load ptr, ptr %15, align 8, !tbaa !21
  %113 = getelementptr inbounds nuw %struct.mbedtls_ssl_cache_entry, ptr %112, i32 0, i32 5
  store ptr %111, ptr %113, align 8, !tbaa !31
  br label %114

114:                                              ; preds = %110, %106
  br label %121

115:                                              ; preds = %92
  %116 = load ptr, ptr %12, align 8, !tbaa !21
  %117 = icmp eq ptr %116, null
  br i1 %117, label %118, label %119

118:                                              ; preds = %115
  store i32 -27648, ptr %5, align 4
  store i32 1, ptr %16, align 4
  br label %140

119:                                              ; preds = %115
  %120 = load ptr, ptr %12, align 8, !tbaa !21
  store ptr %120, ptr %14, align 8, !tbaa !21
  br label %121

121:                                              ; preds = %119, %114, %72, %42
  %122 = load ptr, ptr %14, align 8, !tbaa !21
  %123 = getelementptr inbounds nuw %struct.mbedtls_ssl_cache_entry, ptr %122, i32 0, i32 3
  %124 = load ptr, ptr %123, align 8, !tbaa !22
  %125 = icmp ne ptr %124, null
  br i1 %125, label %126, label %134

126:                                              ; preds = %121
  %127 = load ptr, ptr %14, align 8, !tbaa !21
  %128 = getelementptr inbounds nuw %struct.mbedtls_ssl_cache_entry, ptr %127, i32 0, i32 5
  %129 = load ptr, ptr %128, align 8, !tbaa !31
  store ptr %129, ptr %12, align 8, !tbaa !21
  %130 = load ptr, ptr %14, align 8, !tbaa !21
  call void @ssl_cache_entry_zeroize(ptr noundef %130)
  %131 = load ptr, ptr %12, align 8, !tbaa !21
  %132 = load ptr, ptr %14, align 8, !tbaa !21
  %133 = getelementptr inbounds nuw %struct.mbedtls_ssl_cache_entry, ptr %132, i32 0, i32 5
  store ptr %131, ptr %133, align 8, !tbaa !31
  br label %134

134:                                              ; preds = %126, %121
  %135 = load i64, ptr %10, align 8, !tbaa !16
  %136 = load ptr, ptr %14, align 8, !tbaa !21
  %137 = getelementptr inbounds nuw %struct.mbedtls_ssl_cache_entry, ptr %136, i32 0, i32 0
  store i64 %135, ptr %137, align 8, !tbaa !29
  %138 = load ptr, ptr %14, align 8, !tbaa !21
  %139 = load ptr, ptr %9, align 8, !tbaa !25
  store ptr %138, ptr %139, align 8, !tbaa !21
  store i32 0, ptr %5, align 4
  store i32 1, ptr %16, align 4
  br label %140

140:                                              ; preds = %134, %118, %102
  call void @llvm.lifetime.end.p0(i64 8, ptr %15) #8
  call void @llvm.lifetime.end.p0(i64 8, ptr %14) #8
  call void @llvm.lifetime.end.p0(i64 4, ptr %13) #8
  call void @llvm.lifetime.end.p0(i64 8, ptr %12) #8
  call void @llvm.lifetime.end.p0(i64 8, ptr %11) #8
  call void @llvm.lifetime.end.p0(i64 8, ptr %10) #8
  %141 = load i32, ptr %5, align 4
  ret i32 %141
}

; Function Attrs: nounwind uwtable
define hidden i32 @mbedtls_ssl_cache_set(ptr noundef %0, ptr noundef %1, i64 noundef %2, ptr noundef %3) #0 {
  %5 = alloca ptr, align 8
  %6 = alloca ptr, align 8
  %7 = alloca i64, align 8
  %8 = alloca ptr, align 8
  %9 = alloca i32, align 4
  %10 = alloca ptr, align 8
  %11 = alloca ptr, align 8
  %12 = alloca i64, align 8
  %13 = alloca ptr, align 8
  store ptr %0, ptr %5, align 8, !tbaa !13
  store ptr %1, ptr %6, align 8, !tbaa !14
  store i64 %2, ptr %7, align 8, !tbaa !16
  store ptr %3, ptr %8, align 8, !tbaa !18
  call void @llvm.lifetime.start.p0(i64 4, ptr %9) #8
  store i32 -110, ptr %9, align 4, !tbaa !20
  call void @llvm.lifetime.start.p0(i64 8, ptr %10) #8
  %14 = load ptr, ptr %5, align 8, !tbaa !13
  store ptr %14, ptr %10, align 8, !tbaa !3
  call void @llvm.lifetime.start.p0(i64 8, ptr %11) #8
  call void @llvm.lifetime.start.p0(i64 8, ptr %12) #8
  store i64 0, ptr %12, align 8, !tbaa !16
  call void @llvm.lifetime.start.p0(i64 8, ptr %13) #8
  store ptr null, ptr %13, align 8, !tbaa !14
  %15 = load ptr, ptr %10, align 8, !tbaa !3
  %16 = load ptr, ptr %6, align 8, !tbaa !14
  %17 = load i64, ptr %7, align 8, !tbaa !16
  %18 = call i32 @ssl_cache_pick_writing_slot(ptr noundef %15, ptr noundef %16, i64 noundef %17, ptr noundef %11)
  store i32 %18, ptr %9, align 4, !tbaa !20
  %19 = load i32, ptr %9, align 4, !tbaa !20
  %20 = icmp ne i32 %19, 0
  br i1 %20, label %21, label %22

21:                                               ; preds = %4
  br label %61

22:                                               ; preds = %4
  %23 = load ptr, ptr %8, align 8, !tbaa !18
  %24 = call i32 @mbedtls_ssl_session_save(ptr noundef %23, ptr noundef null, i64 noundef 0, ptr noundef %12)
  store i32 %24, ptr %9, align 4, !tbaa !20
  %25 = load i32, ptr %9, align 4, !tbaa !20
  %26 = icmp ne i32 %25, -27136
  br i1 %26, label %27, label %28

27:                                               ; preds = %22
  br label %61

28:                                               ; preds = %22
  %29 = load i64, ptr %12, align 8, !tbaa !16
  %30 = call noalias ptr @calloc(i64 noundef 1, i64 noundef %29) #10
  store ptr %30, ptr %13, align 8, !tbaa !14
  %31 = load ptr, ptr %13, align 8, !tbaa !14
  %32 = icmp eq ptr %31, null
  br i1 %32, label %33, label %34

33:                                               ; preds = %28
  store i32 -32512, ptr %9, align 4, !tbaa !20
  br label %61

34:                                               ; preds = %28
  %35 = load ptr, ptr %8, align 8, !tbaa !18
  %36 = load ptr, ptr %13, align 8, !tbaa !14
  %37 = load i64, ptr %12, align 8, !tbaa !16
  %38 = call i32 @mbedtls_ssl_session_save(ptr noundef %35, ptr noundef %36, i64 noundef %37, ptr noundef %12)
  store i32 %38, ptr %9, align 4, !tbaa !20
  %39 = load i32, ptr %9, align 4, !tbaa !20
  %40 = icmp ne i32 %39, 0
  br i1 %40, label %41, label %42

41:                                               ; preds = %34
  br label %61

42:                                               ; preds = %34
  %43 = load i64, ptr %7, align 8, !tbaa !16
  %44 = icmp ugt i64 %43, 32
  br i1 %44, label %45, label %46

45:                                               ; preds = %42
  store i32 -28928, ptr %9, align 4, !tbaa !20
  br label %61

46:                                               ; preds = %42
  %47 = load i64, ptr %7, align 8, !tbaa !16
  %48 = load ptr, ptr %11, align 8, !tbaa !21
  %49 = getelementptr inbounds nuw %struct.mbedtls_ssl_cache_entry, ptr %48, i32 0, i32 2
  store i64 %47, ptr %49, align 8, !tbaa !30
  %50 = load ptr, ptr %11, align 8, !tbaa !21
  %51 = getelementptr inbounds nuw %struct.mbedtls_ssl_cache_entry, ptr %50, i32 0, i32 1
  %52 = getelementptr inbounds [32 x i8], ptr %51, i64 0, i64 0
  %53 = load ptr, ptr %6, align 8, !tbaa !14
  %54 = load i64, ptr %7, align 8, !tbaa !16
  call void @llvm.memcpy.p0.p0.i64(ptr align 8 %52, ptr align 1 %53, i64 %54, i1 false)
  %55 = load ptr, ptr %13, align 8, !tbaa !14
  %56 = load ptr, ptr %11, align 8, !tbaa !21
  %57 = getelementptr inbounds nuw %struct.mbedtls_ssl_cache_entry, ptr %56, i32 0, i32 3
  store ptr %55, ptr %57, align 8, !tbaa !22
  %58 = load i64, ptr %12, align 8, !tbaa !16
  %59 = load ptr, ptr %11, align 8, !tbaa !21
  %60 = getelementptr inbounds nuw %struct.mbedtls_ssl_cache_entry, ptr %59, i32 0, i32 4
  store i64 %58, ptr %60, align 8, !tbaa !24
  store ptr null, ptr %13, align 8, !tbaa !14
  store i32 0, ptr %9, align 4, !tbaa !20
  br label %61

61:                                               ; preds = %46, %45, %41, %33, %27, %21
  %62 = load ptr, ptr %13, align 8, !tbaa !14
  %63 = icmp ne ptr %62, null
  br i1 %63, label %64, label %67

64:                                               ; preds = %61
  %65 = load ptr, ptr %13, align 8, !tbaa !14
  %66 = load i64, ptr %12, align 8, !tbaa !16
  call void @mbedtls_zeroize_and_free(ptr noundef %65, i64 noundef %66)
  store ptr null, ptr %13, align 8, !tbaa !14
  br label %67

67:                                               ; preds = %64, %61
  %68 = load i32, ptr %9, align 4, !tbaa !20
  call void @llvm.lifetime.end.p0(i64 8, ptr %13) #8
  call void @llvm.lifetime.end.p0(i64 8, ptr %12) #8
  call void @llvm.lifetime.end.p0(i64 8, ptr %11) #8
  call void @llvm.lifetime.end.p0(i64 8, ptr %10) #8
  call void @llvm.lifetime.end.p0(i64 4, ptr %9) #8
  ret i32 %68
}