; Function Attrs: nounwind uwtable
define hidden i32 @mbedtls_ssl_cache_set(ptr noundef captures(none) %0, ptr noundef readonly captures(none) %1, i64 noundef %2, ptr noundef %3) local_unnamed_addr #1 {
  %5 = alloca i64, align 8
  call void @llvm.lifetime.start.p0(i64 8, ptr nonnull %5) #10
  store i64 0, ptr %5, align 8, !tbaa !21
  %6 = tail call i64 @time(ptr noundef null) #10
  %.04160.i = load ptr, ptr %0, align 8, !tbaa !11
  %.not61.i = icmp eq ptr %.04160.i, null
  br i1 %.not61.i, label %._crit_edge.i.thread, label %.lr.ph.i

.preheader.i:                                     ; preds = %20
  %7 = getelementptr inbounds nuw i8, ptr %.04163.i, i64 64
  %8 = getelementptr inbounds nuw i8, ptr %0, i64 8
  %9 = load i32, ptr %8, align 8, !tbaa !3
  %.not52.i = icmp eq i32 %9, 0
  br i1 %.not52.i, label %.lr.ph70.split.us.i, label %.lr.ph70.split.i

.lr.ph70.split.us.i:                              ; preds = %.preheader.i, %.lr.ph70.split.us.i
  %.269.us.i = phi ptr [ %.2.us.i, %.lr.ph70.split.us.i ], [ %.04160.i, %.preheader.i ]
  %.04368.us.i = phi ptr [ %.144.us.i, %.lr.ph70.split.us.i ], [ null, %.preheader.i ]
  %.04567.us.i = phi i64 [ %.146.us.i, %.lr.ph70.split.us.i ], [ 0, %.preheader.i ]
  %10 = icmp eq i64 %.04567.us.i, 0
  %.pre.i = load i64, ptr %.269.us.i, align 8, !tbaa !18
  %11 = icmp slt i64 %.pre.i, %.04567.us.i
  %or.cond.i = select i1 %10, i1 true, i1 %11
  %.146.us.i = select i1 %or.cond.i, i64 %.pre.i, i64 %.04567.us.i
  %.144.us.i = select i1 %or.cond.i, ptr %.269.us.i, ptr %.04368.us.i
  %12 = getelementptr inbounds nuw i8, ptr %.269.us.i, i64 64
  %.2.us.i = load ptr, ptr %12, align 8, !tbaa !11
  %.not51.us.i = icmp eq ptr %.2.us.i, null
  br i1 %.not51.us.i, label %._crit_edge.i, label %.lr.ph70.split.us.i, !llvm.loop !22

.lr.ph.i:                                         ; preds = %4, %20
  %.04163.i = phi ptr [ %.041.i, %20 ], [ %.04160.i, %4 ]
  %.04262.i = phi i32 [ %13, %20 ], [ 0, %4 ]
  %13 = add nuw nsw i32 %.04262.i, 1
  %14 = getelementptr inbounds nuw i8, ptr %.04163.i, i64 40
  %15 = load i64, ptr %14, align 8, !tbaa !12
  %16 = icmp eq i64 %2, %15
  br i1 %16, label %17, label %20

17:                                               ; preds = %.lr.ph.i
  %18 = getelementptr inbounds nuw i8, ptr %.04163.i, i64 8
  %bcmp.i = tail call i32 @bcmp(ptr readonly %1, ptr nonnull %18, i64 %2)
  %19 = icmp eq i32 %bcmp.i, 0
  br i1 %19, label %.loopexit.i, label %20

20:                                               ; preds = %17, %.lr.ph.i
  %21 = getelementptr inbounds nuw i8, ptr %.04163.i, i64 64
  %.041.i = load ptr, ptr %21, align 8, !tbaa !11
  %.not.i = icmp eq ptr %.041.i, null
  br i1 %.not.i, label %.preheader.i, label %.lr.ph.i, !llvm.loop !23

.lr.ph70.split.i:                                 ; preds = %.preheader.i, %26
  %.269.i = phi ptr [ %.2.i, %26 ], [ %.04160.i, %.preheader.i ]
  %.04368.i = phi ptr [ %.144.i, %26 ], [ null, %.preheader.i ]
  %.04567.i = phi i64 [ %.146.i, %26 ], [ 0, %.preheader.i ]
  %22 = load i64, ptr %.269.i, align 8, !tbaa !18
  %23 = sub nsw i64 %6, %22
  %24 = trunc i64 %23 to i32
  %25 = icmp slt i32 %9, %24
  br i1 %25, label %.loopexit.i, label %26

26:                                               ; preds = %.lr.ph70.split.i
  %27 = icmp eq i64 %.04567.i, 0
  %28 = icmp slt i64 %22, %.04567.i
  %or.cond86.i = or i1 %27, %28
  %.146.i = select i1 %or.cond86.i, i64 %22, i64 %.04567.i
  %.144.i = select i1 %or.cond86.i, ptr %.269.i, ptr %.04368.i
  %29 = getelementptr inbounds nuw i8, ptr %.269.i, i64 64
  %.2.i = load ptr, ptr %29, align 8, !tbaa !11
  %.not51.i = icmp eq ptr %.2.i, null
  br i1 %.not51.i, label %._crit_edge.i, label %.lr.ph70.split.i, !llvm.loop !22

._crit_edge.i:                                    ; preds = %26, %.lr.ph70.split.us.i
  %.043.lcssa.i = phi ptr [ %.144.us.i, %.lr.ph70.split.us.i ], [ %.144.i, %26 ]
  %30 = getelementptr inbounds nuw i8, ptr %0, i64 12
  %31 = load i32, ptr %30, align 4, !tbaa !10
  %32 = icmp slt i32 %13, %31
  br i1 %32, label %36, label %43

._crit_edge.i.thread:                             ; preds = %4
  %33 = getelementptr inbounds nuw i8, ptr %0, i64 12
  %34 = load i32, ptr %33, align 4, !tbaa !10
  %35 = icmp sgt i32 %34, 0
  br i1 %35, label %.thread43, label %.thread38

36:                                               ; preds = %._crit_edge.i
  %37 = tail call noalias dereferenceable_or_null(72) ptr @calloc(i64 noundef 1, i64 noundef 72) #11
  %38 = icmp eq ptr %37, null
  br i1 %38, label %.thread38, label %42

.thread43:                                        ; preds = %._crit_edge.i.thread
  %39 = tail call noalias dereferenceable_or_null(72) ptr @calloc(i64 noundef 1, i64 noundef 72) #11
  %40 = icmp eq ptr %39, null
  br i1 %40, label %.thread38, label %41

41:                                               ; preds = %.thread43
  store ptr %39, ptr %0, align 8, !tbaa !24
  br label %.loopexit.i

42:                                               ; preds = %36
  store ptr %37, ptr %7, align 8, !tbaa !25
  br label %.loopexit.i

43:                                               ; preds = %._crit_edge.i
  %44 = icmp eq ptr %.043.lcssa.i, null
  br i1 %44, label %.thread38, label %.loopexit.i

.loopexit.i:                                      ; preds = %17, %.lr.ph70.split.i, %43, %42, %41
  %.1.i = phi ptr [ %39, %41 ], [ %37, %42 ], [ %.043.lcssa.i, %43 ], [ %.269.i, %.lr.ph70.split.i ], [ %.04163.i, %17 ]
  %45 = getelementptr inbounds nuw i8, ptr %.1.i, i64 48
  %46 = load ptr, ptr %45, align 8, !tbaa !19
  %.not53.i = icmp eq ptr %46, null
  br i1 %.not53.i, label %51, label %ssl_cache_entry_zeroize.exit.i

ssl_cache_entry_zeroize.exit.i:                   ; preds = %.loopexit.i
  %47 = getelementptr inbounds nuw i8, ptr %.1.i, i64 64
  %48 = load ptr, ptr %47, align 8, !tbaa !25
  %49 = getelementptr inbounds nuw i8, ptr %.1.i, i64 56
  %50 = load i64, ptr %49, align 8, !tbaa !20
  tail call void @mbedtls_zeroize_and_free(ptr noundef nonnull %46, i64 noundef %50) #10
  tail call void @mbedtls_platform_zeroize(ptr noundef nonnull %.1.i, i64 noundef 72) #10
  store ptr %48, ptr %47, align 8, !tbaa !25
  br label %51

51:                                               ; preds = %ssl_cache_entry_zeroize.exit.i, %.loopexit.i
  store i64 %6, ptr %.1.i, align 8, !tbaa !18
  %52 = call i32 @mbedtls_ssl_session_save(ptr noundef %3, ptr noundef null, i64 noundef 0, ptr noundef nonnull %5) #10
  %.not24 = icmp eq i32 %52, -27136
  br i1 %.not24, label %53, label %.thread38

53:                                               ; preds = %51
  %54 = load i64, ptr %5, align 8, !tbaa !21
  %55 = call noalias ptr @calloc(i64 noundef 1, i64 noundef %54) #11
  %56 = icmp eq ptr %55, null
  br i1 %56, label %.thread38, label %57

57:                                               ; preds = %53
  %58 = call i32 @mbedtls_ssl_session_save(ptr noundef %3, ptr noundef nonnull %55, i64 noundef %54, ptr noundef nonnull %5) #10
  %.not25 = icmp eq i32 %58, 0
  br i1 %.not25, label %59, label %66

59:                                               ; preds = %57
  %60 = icmp ugt i64 %2, 32
  br i1 %60, label %66, label %61

61:                                               ; preds = %59
  %62 = getelementptr inbounds nuw i8, ptr %.1.i, i64 40
  store i64 %2, ptr %62, align 8, !tbaa !12
  %63 = getelementptr inbounds nuw i8, ptr %.1.i, i64 8
  call void @llvm.memcpy.p0.p0.i64(ptr nonnull align 8 %63, ptr align 1 %1, i64 %2, i1 false)
  store ptr %55, ptr %45, align 8, !tbaa !19
  %64 = load i64, ptr %5, align 8, !tbaa !21
  %65 = getelementptr inbounds nuw i8, ptr %.1.i, i64 56
  store i64 %64, ptr %65, align 8, !tbaa !20
  br label %.thread38

66:                                               ; preds = %57, %59
  %.018 = phi i32 [ %58, %57 ], [ -28928, %59 ]
  %67 = load i64, ptr %5, align 8, !tbaa !21
  call void @mbedtls_zeroize_and_free(ptr noundef nonnull %55, i64 noundef %67) #10
  br label %.thread38

.thread38:                                        ; preds = %.thread43, %._crit_edge.i.thread, %43, %36, %53, %61, %51, %66
  %.01842 = phi i32 [ %.018, %66 ], [ -32512, %53 ], [ 0, %61 ], [ %52, %51 ], [ -27648, %43 ], [ -32512, %36 ], [ -27648, %._crit_edge.i.thread ], [ -32512, %.thread43 ]
  call void @llvm.lifetime.end.p0(i64 8, ptr nonnull %5) #10
  ret i32 %.01842
}